target datalayout = "e-m:e-p270:32:32-p271:32:32-p272:64:64-i64:64-i128:128-f80:128-n8:16:32:64-S128"
target triple = "x86_64-unknown-linux-gnu"

%"class.std::set.0" = type { %"class.std::_Rb_tree.1" }
%"class.std::_Rb_tree.1" = type { %"struct.std::_Rb_tree<QuantLib::Observer *, QuantLib::Observer *, std::_Identity<QuantLib::Observer *>, std::less<QuantLib::Observer *>>::_Rb_tree_impl" }
%"struct.std::_Rb_tree<QuantLib::Observer *, QuantLib::Observer *, std::_Identity<QuantLib::Observer *>, std::less<QuantLib::Observer *>>::_Rb_tree_impl" = type { [8 x i8], %"struct.std::_Rb_tree_header" }
%"struct.std::_Rb_tree_header" = type { %"struct.std::_Rb_tree_node_base", i64 }
%"struct.std::_Rb_tree_node_base" = type { i32, ptr, ptr, ptr }
%"class.std::set" = type { %"class.std::_Rb_tree" }
%"class.std::_Rb_tree" = type { %"struct.std::_Rb_tree<boost::shared_ptr<QuantLib::Observable>, boost::shared_ptr<QuantLib::Observable>, std::_Identity<boost::shared_ptr<QuantLib::Observable>>, std::less<boost::shared_ptr<QuantLib::Observable>>>::_Rb_tree_impl" }
%"struct.std::_Rb_tree<boost::shared_ptr<QuantLib::Observable>, boost::shared_ptr<QuantLib::Observable>, std::_Identity<boost::shared_ptr<QuantLib::Observable>>, std::less<boost::shared_ptr<QuantLib::Observable>>>::_Rb_tree_impl" = type { [8 x i8], %"struct.std::_Rb_tree_header" }
%"class.boost::detail::shared_count" = type { ptr }
%"class.QuantLib::Observable" = type { ptr, %"class.std::set.0" }
%"class.QuantLib::AnalyticContinuousGeometricAveragePriceAsianHestonEngine" = type { %"class.QuantLib::ContinuousAveragingAsianOption::engine", double, double, double, double, double, %"class.QuantLib::Handle", %"class.QuantLib::Handle", %"class.QuantLib::Handle.22", %"class.boost::shared_ptr.20", double, double, double, double, double, %"class.std::map.24", i64, double, %"class.QuantLib::GaussLegendreIntegration" }
%"class.QuantLib::ContinuousAveragingAsianOption::engine" = type { %"class.QuantLib::GenericEngine" }
%"class.QuantLib::GenericEngine" = type { %"class.QuantLib::PricingEngine", %"class.QuantLib::Observer", %"class.QuantLib::ContinuousAveragingAsianOption::arguments", %"class.QuantLib::OneAssetOption::results" }
%"class.QuantLib::PricingEngine" = type { %"class.QuantLib::Observable" }
%"class.QuantLib::Observer" = type { ptr, %"class.std::set" }
%"class.QuantLib::ContinuousAveragingAsianOption::arguments" = type <{ %"class.QuantLib::Option::arguments", i32, [4 x i8] }>
%"class.QuantLib::Option::arguments" = type { %"class.QuantLib::PricingEngine::arguments", %"class.boost::shared_ptr.16", %"class.boost::shared_ptr.17" }
%"class.QuantLib::PricingEngine::arguments" = type { ptr }
%"class.boost::shared_ptr.16" = type { ptr, %"class.boost::detail::shared_count" }
%"class.boost::shared_ptr.17" = type { ptr, %"class.boost::detail::shared_count" }
%"class.QuantLib::OneAssetOption::results" = type { %"class.QuantLib::Instrument::results", %"class.QuantLib::Greeks", %"class.QuantLib::MoreGreeks" }
%"class.QuantLib::Instrument::results" = type { %"class.QuantLib::PricingEngine::results", double, double, %"class.QuantLib::Date", %"class.std::map" }
%"class.QuantLib::PricingEngine::results" = type { ptr }
%"class.QuantLib::Date" = type { i64 }
%"class.std::map" = type { %"class.std::_Rb_tree.10" }
%"class.std::_Rb_tree.10" = type { %"struct.std::_Rb_tree<std::__cxx11::basic_string<char>, std::pair<const std::__cxx11::basic_string<char>, boost::any>, std::_Select1st<std::pair<const std::__cxx11::basic_string<char>, boost::any>>, std::less<std::__cxx11::basic_string<char>>>::_Rb_tree_impl" }
%"struct.std::_Rb_tree<std::__cxx11::basic_string<char>, std::pair<const std::__cxx11::basic_string<char>, boost::any>, std::_Select1st<std::pair<const std::__cxx11::basic_string<char>, boost::any>>, std::less<std::__cxx11::basic_string<char>>>::_Rb_tree_impl" = type { [8 x i8], %"struct.std::_Rb_tree_header" }
%"class.QuantLib::Greeks" = type { %"class.QuantLib::PricingEngine::results", double, double, double, double, double, double }
%"class.QuantLib::MoreGreeks" = type { %"class.QuantLib::PricingEngine::results", double, double, double, double, double }
%"class.QuantLib::Handle" = type { %"class.boost::shared_ptr.21" }
%"class.boost::shared_ptr.21" = type { ptr, %"class.boost::detail::shared_count" }
%"class.QuantLib::Handle.22" = type { %"class.boost::shared_ptr.23" }
%"class.boost::shared_ptr.23" = type { ptr, %"class.boost::detail::shared_count" }
%"class.boost::shared_ptr.20" = type { ptr, %"class.boost::detail::shared_count" }
%"class.std::map.24" = type { %"class.std::_Rb_tree.25" }
%"class.std::_Rb_tree.25" = type { %"struct.std::_Rb_tree<int, std::pair<const int, std::complex<double>>, std::_Select1st<std::pair<const int, std::complex<double>>>, std::less<int>>::_Rb_tree_impl" }
%"struct.std::_Rb_tree<int, std::pair<const int, std::complex<double>>, std::_Select1st<std::pair<const int, std::complex<double>>>, std::less<int>>::_Rb_tree_impl" = type { [8 x i8], %"struct.std::_Rb_tree_header" }
%"class.QuantLib::GaussLegendreIntegration" = type { %"class.QuantLib::GaussianQuadrature" }
%"class.QuantLib::GaussianQuadrature" = type { %"class.QuantLib::Array", %"class.QuantLib::Array" }
%"class.QuantLib::Array" = type { %"class.std::unique_ptr", i64 }
%"class.std::unique_ptr" = type { %"struct.std::__uniq_ptr_data" }
%"struct.std::__uniq_ptr_data" = type { %"class.std::__uniq_ptr_impl" }
%"class.std::__uniq_ptr_impl" = type { %"class.std::tuple" }
%"class.std::tuple" = type { %"struct.std::_Tuple_impl" }
%"struct.std::_Tuple_impl" = type { %"struct.std::_Head_base.31" }
%"struct.std::_Head_base.31" = type { ptr }
%"class.std::complex" = type { { double, double } }

; Function Attrs: mustprogress nounwind uwtable
define linkonce_odr noundef nonnull align 8 dereferenceable(16) ptr @_ZNSt7complexIdEdVEd(ptr noundef nonnull align 8 dereferenceable(16) %this, double noundef %__d) #1 comdat align 2 {
entry:
  %this.addr = alloca ptr, align 8
  %__d.addr = alloca double, align 8
  store ptr %this, ptr %this.addr, align 8, !tbaa !3
  store double %__d, ptr %__d.addr, align 8, !tbaa !16
  %this1 = load ptr, ptr %this.addr, align 8
  %0 = load double, ptr %__d.addr, align 8, !tbaa !16
  %_M_value = getelementptr inbounds nuw %"class.std::complex", ptr %this1, i32 0, i32 0
  %_M_value.realp = getelementptr inbounds nuw { double, double }, ptr %_M_value, i32 0, i32 0
  %_M_value.real = load double, ptr %_M_value.realp, align 8
  %_M_value.imagp = getelementptr inbounds nuw { double, double }, ptr %_M_value, i32 0, i32 1
  %_M_value.imag = load double, ptr %_M_value.imagp, align 8
  %1 = fdiv double %_M_value.real, %0
  %2 = fdiv double %_M_value.imag, %0
  %_M_value.realp2 = getelementptr inbounds nuw { double, double }, ptr %_M_value, i32 0, i32 0
  %_M_value.imagp3 = getelementptr inbounds nuw { double, double }, ptr %_M_value, i32 0, i32 1
  store double %1, ptr %_M_value.realp2, align 8
  store double %2, ptr %_M_value.imagp3, align 8
  ret ptr %this1
}

; Function Attrs: mustprogress nounwind uwtable
define linkonce_odr noundef nonnull align 8 dereferenceable(16) ptr @_ZNSt7complexIdEmLEd(ptr noundef nonnull align 8 dereferenceable(16) %this, double noundef %__d) #1 comdat align 2 {
entry:
  %this.addr = alloca ptr, align 8
  %__d.addr = alloca double, align 8
  store ptr %this, ptr %this.addr, align 8, !tbaa !3
  store double %__d, ptr %__d.addr, align 8, !tbaa !16
  %this1 = load ptr, ptr %this.addr, align 8
  %0 = load double, ptr %__d.addr, align 8, !tbaa !16
  %_M_value = getelementptr inbounds nuw %"class.std::complex", ptr %this1, i32 0, i32 0
  %_M_value.realp = getelementptr inbounds nuw { double, double }, ptr %_M_value, i32 0, i32 0
  %_M_value.real = load double, ptr %_M_value.realp, align 8
  %_M_value.imagp = getelementptr inbounds nuw { double, double }, ptr %_M_value, i32 0, i32 1
  %_M_value.imag = load double, ptr %_M_value.imagp, align 8
  %mul.rl = fmul double %_M_value.real, %0
  %mul.il = fmul double %_M_value.imag, %0
  %_M_value.realp2 = getelementptr inbounds nuw { double, double }, ptr %_M_value, i32 0, i32 0
  %_M_value.imagp3 = getelementptr inbounds nuw { double, double }, ptr %_M_value, i32 0, i32 1
  store double %mul.rl, ptr %_M_value.realp2, align 8
  store double %mul.il, ptr %_M_value.imagp3, align 8
  ret ptr %this1
}

; Function Attrs: inlinehint mustprogress uwtable
define linkonce_odr { double, double } @_ZStdvIdESt7complexIT_ERKS2_RKS1_(ptr noundef nonnull align 8 dereferenceable(16) %__x, ptr noundef nonnull align 8 dereferenceable(8) %__y) #4 comdat {
entry:
  %retval = alloca %"class.std::complex", align 8
  %__x.addr = alloca ptr, align 8
  %__y.addr = alloca ptr, align 8
  store ptr %__x, ptr %__x.addr, align 8, !tbaa !3
  store ptr %__y, ptr %__y.addr, align 8, !tbaa !3
  %0 = load ptr, ptr %__x.addr, align 8, !tbaa !3
  call void @llvm.memcpy.p0.p0.i64(ptr align 8 %retval, ptr align 8 %0, i64 16, i1 false), !tbaa.struct !95
  %1 = load ptr, ptr %__y.addr, align 8, !tbaa !3
  %2 = load double, ptr %1, align 8, !tbaa !16
  %call = call noundef nonnull align 8 dereferenceable(16) ptr @_ZNSt7complexIdEdVEd(ptr noundef nonnull align 8 dereferenceable(16) %retval, double noundef %2)
  %coerce.dive = getelementptr inbounds nuw %"class.std::complex", ptr %retval, i32 0, i32 0
  %3 = load { double, double }, ptr %coerce.dive, align 8
  ret { double, double } %3
}

; Function Attrs: inlinehint mustprogress nounwind uwtable
define linkonce_odr { double, double } @_ZStmlIdESt7complexIT_ERKS2_RKS1_(ptr noundef nonnull align 8 dereferenceable(16) %__x, ptr noundef nonnull align 8 dereferenceable(8) %__y) #5 comdat {
entry:
  %retval = alloca %"class.std::complex", align 8
  %__x.addr = alloca ptr, align 8
  %__y.addr = alloca ptr, align 8
  store ptr %__x, ptr %__x.addr, align 8, !tbaa !3
  store ptr %__y, ptr %__y.addr, align 8, !tbaa !3
  %0 = load ptr, ptr %__x.addr, align 8, !tbaa !3
  call void @llvm.memcpy.p0.p0.i64(ptr align 8 %retval, ptr align 8 %0, i64 16, i1 false), !tbaa.struct !95
  %1 = load ptr, ptr %__y.addr, align 8, !tbaa !3
  %2 = load double, ptr %1, align 8, !tbaa !16
  %call = call noundef nonnull align 8 dereferenceable(16) ptr @_ZNSt7complexIdEmLEd(ptr noundef nonnull align 8 dereferenceable(16) %retval, double noundef %2)
  %coerce.dive = getelementptr inbounds nuw %"class.std::complex", ptr %retval, i32 0, i32 0
  %3 = load { double, double }, ptr %coerce.dive, align 8
  ret { double, double } %3
}

; Function Attrs: mustprogress uwtable
define { double, double } @_ZNK8QuantLib56AnalyticContinuousGeometricAveragePriceAsianHestonEngine4z4_fERKSt7complexIdES4_(ptr noundef nonnull align 8 dereferenceable(584) %this, ptr noundef nonnull align 8 dereferenceable(16) %s, ptr noundef nonnull align 8 dereferenceable(16) %w) #2 align 2 {
entry:
  %retval = alloca %"class.std::complex", align 8
  %this.addr = alloca ptr, align 8
  %s.addr = alloca ptr, align 8
  %w.addr = alloca ptr, align 8
  %ref.tmp = alloca %"class.std::complex", align 8
  store ptr %this, ptr %this.addr, align 8, !tbaa !3
  store ptr %s, ptr %s.addr, align 8, !tbaa !3
  store ptr %w, ptr %w.addr, align 8, !tbaa !3
  %this1 = load ptr, ptr %this.addr, align 8
  call void @llvm.lifetime.start.p0(i64 16, ptr %ref.tmp) #15
  %0 = load ptr, ptr %w.addr, align 8, !tbaa !3
  %rho_ = getelementptr inbounds nuw %"class.QuantLib::AnalyticContinuousGeometricAveragePriceAsianHestonEngine", ptr %this1, i32 0, i32 2
  %call = call { double, double } @_ZStmlIdESt7complexIT_ERKS2_RKS1_(ptr noundef nonnull align 8 dereferenceable(16) %0, ptr noundef nonnull align 8 dereferenceable(8) %rho_)
  %coerce.dive = getelementptr inbounds nuw %"class.std::complex", ptr %ref.tmp, i32 0, i32 0
  %1 = getelementptr inbounds nuw { double, double }, ptr %coerce.dive, i32 0, i32 0
  %2 = extractvalue { double, double } %call, 0
  store double %2, ptr %1, align 8
  %3 = getelementptr inbounds nuw { double, double }, ptr %coerce.dive, i32 0, i32 1
  %4 = extractvalue { double, double } %call, 1
  store double %4, ptr %3, align 8
  %sigma_ = getelementptr inbounds nuw %"class.QuantLib::AnalyticContinuousGeometricAveragePriceAsianHestonEngine", ptr %this1, i32 0, i32 5
  %call2 = call { double, double } @_ZStdvIdESt7complexIT_ERKS2_RKS1_(ptr noundef nonnull align 8 dereferenceable(16) %ref.tmp, ptr noundef nonnull align 8 dereferenceable(8) %sigma_)
  %coerce.dive3 = getelementptr inbounds nuw %"class.std::complex", ptr %retval, i32 0, i32 0
  %5 = getelementptr inbounds nuw { double, double }, ptr %coerce.dive3, i32 0, i32 0
  %6 = extractvalue { double, double } %call2, 0
  store double %6, ptr %5, align 8
  %7 = getelementptr inbounds nuw { double, double }, ptr %coerce.dive3, i32 0, i32 1
  %8 = extractvalue { double, double } %call2, 1
  store double %8, ptr %7, align 8
  call void @llvm.lifetime.end.p0(i64 16, ptr %ref.tmp) #15
  %coerce.dive4 = getelementptr inbounds nuw %"class.std::complex", ptr %retval, i32 0, i32 0
  %9 = load { double, double }, ptr %coerce.dive4, align 8
  ret { double, double } %9
}