; Function Attrs: mustprogress nofree norecurse nosync nounwind willreturn memory(argmem: read) uwtable
define { double, double } @_ZNK8QuantLib56AnalyticContinuousGeometricAveragePriceAsianHestonEngine4z4_fERKSt7complexIdES4_(ptr nocapture noundef nonnull readonly align 8 dereferenceable(584) %this, ptr nocapture noundef nonnull readnone align 8 dereferenceable(16) %s, ptr nocapture noundef nonnull readonly align 8 dereferenceable(16) %w) local_unnamed_addr #12 align 2 {
entry:
  %rho_ = getelementptr inbounds nuw i8, ptr %this, i64 352
  %retval.sroa.0.0.copyload.i = load double, ptr %w, align 8
  %retval.sroa.4.0.__x.sroa_idx.i = getelementptr inbounds i8, ptr %w, i64 8
  %retval.sroa.4.0.copyload.i = load double, ptr %retval.sroa.4.0.__x.sroa_idx.i, align 8, !tbaa !33
  %0 = load double, ptr %rho_, align 8, !tbaa !113
  %mul.rl.i.i = fmul double %retval.sroa.0.0.copyload.i, %0
  %mul.il.i.i = fmul double %retval.sroa.4.0.copyload.i, %0
  %sigma_ = getelementptr inbounds nuw i8, ptr %this, i64 376
  %1 = load double, ptr %sigma_, align 8, !tbaa !113
  %2 = fdiv double %mul.rl.i.i, %1
  %3 = fdiv double %mul.il.i.i, %1
  %.fca.0.insert.i4 = insertvalue { double, double } poison, double %2, 0
  %.fca.1.insert.i5 = insertvalue { double, double } %.fca.0.insert.i4, double %3, 1
  ret { double, double } %.fca.1.insert.i5
}